target datalayout = "e-m:e-p270:32:32-p271:32:32-p272:64:64-i64:64-i128:128-f80:128-n8:16:32:64-S128"
target triple = "x86_64-pc-linux-gnu"

%struct.ossl_dispatch_st = type { i32, ptr }
%struct.key2any_ctx_st = type { ptr, i32, i32, ptr, ptr, ptr }

; Function Attrs: inlinehint nounwind uwtable
define internal ptr @OSSL_FUNC_keymgmt_import(ptr noundef %0) #3 {
  %2 = alloca ptr, align 8
  store ptr %0, ptr %2, align 8, !tbaa !9
  %3 = load ptr, ptr %2, align 8, !tbaa !9
  %4 = getelementptr inbounds nuw %struct.ossl_dispatch_st, ptr %3, i32 0, i32 1
  %5 = load ptr, ptr %4, align 8, !tbaa !29
  ret ptr %5
}

; Function Attrs: inlinehint nounwind uwtable
define internal ptr @OSSL_FUNC_keymgmt_free(ptr noundef %0) #3 {
  %2 = alloca ptr, align 8
  store ptr %0, ptr %2, align 8, !tbaa !9
  %3 = load ptr, ptr %2, align 8, !tbaa !9
  %4 = getelementptr inbounds nuw %struct.ossl_dispatch_st, ptr %3, i32 0, i32 1
  %5 = load ptr, ptr %4, align 8, !tbaa !29
  ret ptr %5
}

; Function Attrs: inlinehint nounwind uwtable
define internal ptr @OSSL_FUNC_keymgmt_new(ptr noundef %0) #3 {
  %2 = alloca ptr, align 8
  store ptr %0, ptr %2, align 8, !tbaa !9
  %3 = load ptr, ptr %2, align 8, !tbaa !9
  %4 = getelementptr inbounds nuw %struct.ossl_dispatch_st, ptr %3, i32 0, i32 1
  %5 = load ptr, ptr %4, align 8, !tbaa !29
  ret ptr %5
}

; Function Attrs: nounwind uwtable
define internal ptr @xor_prov_get_keymgmt_import(ptr noundef %0) #0 {
  %2 = alloca ptr, align 8
  %3 = alloca ptr, align 8
  store ptr %0, ptr %3, align 8, !tbaa !9
  br label %4

4:                                                ; preds = %18, %1
  %5 = load ptr, ptr %3, align 8, !tbaa !9
  %6 = getelementptr inbounds nuw %struct.ossl_dispatch_st, ptr %5, i32 0, i32 0
  %7 = load i32, ptr %6, align 8, !tbaa !21
  %8 = icmp ne i32 %7, 0
  br i1 %8, label %9, label %21

9:                                                ; preds = %4
  %10 = load ptr, ptr %3, align 8, !tbaa !9
  %11 = getelementptr inbounds nuw %struct.ossl_dispatch_st, ptr %10, i32 0, i32 0
  %12 = load i32, ptr %11, align 8, !tbaa !21
  %13 = icmp eq i32 %12, 40
  br i1 %13, label %14, label %17

14:                                               ; preds = %9
  %15 = load ptr, ptr %3, align 8, !tbaa !9
  %16 = call ptr @OSSL_FUNC_keymgmt_import(ptr noundef %15)
  store ptr %16, ptr %2, align 8
  br label %22

17:                                               ; preds = %9
  br label %18

18:                                               ; preds = %17
  %19 = load ptr, ptr %3, align 8, !tbaa !9
  %20 = getelementptr inbounds nuw %struct.ossl_dispatch_st, ptr %19, i32 1
  store ptr %20, ptr %3, align 8, !tbaa !9
  br label %4, !llvm.loop !84

21:                                               ; preds = %4
  store ptr null, ptr %2, align 8
  br label %22

22:                                               ; preds = %21, %14
  %23 = load ptr, ptr %2, align 8
  ret ptr %23
}

; Function Attrs: nounwind uwtable
define internal ptr @xor_prov_get_keymgmt_free(ptr noundef %0) #0 {
  %2 = alloca ptr, align 8
  %3 = alloca ptr, align 8
  store ptr %0, ptr %3, align 8, !tbaa !9
  br label %4

4:                                                ; preds = %18, %1
  %5 = load ptr, ptr %3, align 8, !tbaa !9
  %6 = getelementptr inbounds nuw %struct.ossl_dispatch_st, ptr %5, i32 0, i32 0
  %7 = load i32, ptr %6, align 8, !tbaa !21
  %8 = icmp ne i32 %7, 0
  br i1 %8, label %9, label %21

9:                                                ; preds = %4
  %10 = load ptr, ptr %3, align 8, !tbaa !9
  %11 = getelementptr inbounds nuw %struct.ossl_dispatch_st, ptr %10, i32 0, i32 0
  %12 = load i32, ptr %11, align 8, !tbaa !21
  %13 = icmp eq i32 %12, 10
  br i1 %13, label %14, label %17

14:                                               ; preds = %9
  %15 = load ptr, ptr %3, align 8, !tbaa !9
  %16 = call ptr @OSSL_FUNC_keymgmt_free(ptr noundef %15)
  store ptr %16, ptr %2, align 8
  br label %22

17:                                               ; preds = %9
  br label %18

18:                                               ; preds = %17
  %19 = load ptr, ptr %3, align 8, !tbaa !9
  %20 = getelementptr inbounds nuw %struct.ossl_dispatch_st, ptr %19, i32 1
  store ptr %20, ptr %3, align 8, !tbaa !9
  br label %4, !llvm.loop !83

21:                                               ; preds = %4
  store ptr null, ptr %2, align 8
  br label %22

22:                                               ; preds = %21, %14
  %23 = load ptr, ptr %2, align 8
  ret ptr %23
}

; Function Attrs: nounwind uwtable
define internal ptr @xor_prov_get_keymgmt_new(ptr noundef %0) #0 {
  %2 = alloca ptr, align 8
  %3 = alloca ptr, align 8
  store ptr %0, ptr %3, align 8, !tbaa !9
  br label %4

4:                                                ; preds = %18, %1
  %5 = load ptr, ptr %3, align 8, !tbaa !9
  %6 = getelementptr inbounds nuw %struct.ossl_dispatch_st, ptr %5, i32 0, i32 0
  %7 = load i32, ptr %6, align 8, !tbaa !21
  %8 = icmp ne i32 %7, 0
  br i1 %8, label %9, label %21

9:                                                ; preds = %4
  %10 = load ptr, ptr %3, align 8, !tbaa !9
  %11 = getelementptr inbounds nuw %struct.ossl_dispatch_st, ptr %10, i32 0, i32 0
  %12 = load i32, ptr %11, align 8, !tbaa !21
  %13 = icmp eq i32 %12, 1
  br i1 %13, label %14, label %17

14:                                               ; preds = %9
  %15 = load ptr, ptr %3, align 8, !tbaa !9
  %16 = call ptr @OSSL_FUNC_keymgmt_new(ptr noundef %15)
  store ptr %16, ptr %2, align 8
  br label %22

17:                                               ; preds = %9
  br label %18

18:                                               ; preds = %17
  %19 = load ptr, ptr %3, align 8, !tbaa !9
  %20 = getelementptr inbounds nuw %struct.ossl_dispatch_st, ptr %19, i32 1
  store ptr %20, ptr %3, align 8, !tbaa !9
  br label %4, !llvm.loop !82

21:                                               ; preds = %4
  store ptr null, ptr %2, align 8
  br label %22

22:                                               ; preds = %21, %14
  %23 = load ptr, ptr %2, align 8
  ret ptr %23
}

; Function Attrs: nounwind uwtable
define internal ptr @xor_prov_import_key(ptr noundef %0, ptr noundef %1, i32 noundef %2, ptr noundef %3) #0 {
  %5 = alloca ptr, align 8
  %6 = alloca ptr, align 8
  %7 = alloca i32, align 4
  %8 = alloca ptr, align 8
  %9 = alloca ptr, align 8
  %10 = alloca ptr, align 8
  %11 = alloca ptr, align 8
  %12 = alloca ptr, align 8
  store ptr %0, ptr %5, align 8, !tbaa !9
  store ptr %1, ptr %6, align 8, !tbaa !13
  store i32 %2, ptr %7, align 4, !tbaa !27
  store ptr %3, ptr %8, align 8, !tbaa !43
  call void @llvm.lifetime.start.p0(i64 8, ptr %9) #8
  %13 = load ptr, ptr %5, align 8, !tbaa !9
  %14 = call ptr @xor_prov_get_keymgmt_new(ptr noundef %13)
  store ptr %14, ptr %9, align 8, !tbaa !13
  call void @llvm.lifetime.start.p0(i64 8, ptr %10) #8
  %15 = load ptr, ptr %5, align 8, !tbaa !9
  %16 = call ptr @xor_prov_get_keymgmt_free(ptr noundef %15)
  store ptr %16, ptr %10, align 8, !tbaa !13
  call void @llvm.lifetime.start.p0(i64 8, ptr %11) #8
  %17 = load ptr, ptr %5, align 8, !tbaa !9
  %18 = call ptr @xor_prov_get_keymgmt_import(ptr noundef %17)
  store ptr %18, ptr %11, align 8, !tbaa !13
  call void @llvm.lifetime.start.p0(i64 8, ptr %12) #8
  store ptr null, ptr %12, align 8, !tbaa !13
  %19 = load ptr, ptr %9, align 8, !tbaa !13
  %20 = icmp ne ptr %19, null
  br i1 %20, label %21, label %43

21:                                               ; preds = %4
  %22 = load ptr, ptr %11, align 8, !tbaa !13
  %23 = icmp ne ptr %22, null
  br i1 %23, label %24, label %43

24:                                               ; preds = %21
  %25 = load ptr, ptr %10, align 8, !tbaa !13
  %26 = icmp ne ptr %25, null
  br i1 %26, label %27, label %43

27:                                               ; preds = %24
  %28 = load ptr, ptr %9, align 8, !tbaa !13
  %29 = load ptr, ptr %6, align 8, !tbaa !13
  %30 = call ptr %28(ptr noundef %29)
  store ptr %30, ptr %12, align 8, !tbaa !13
  %31 = icmp eq ptr %30, null
  br i1 %31, label %39, label %32

32:                                               ; preds = %27
  %33 = load ptr, ptr %11, align 8, !tbaa !13
  %34 = load ptr, ptr %12, align 8, !tbaa !13
  %35 = load i32, ptr %7, align 4, !tbaa !27
  %36 = load ptr, ptr %8, align 8, !tbaa !43
  %37 = call i32 %33(ptr noundef %34, i32 noundef %35, ptr noundef %36)
  %38 = icmp ne i32 %37, 0
  br i1 %38, label %42, label %39

39:                                               ; preds = %32, %27
  %40 = load ptr, ptr %10, align 8, !tbaa !13
  %41 = load ptr, ptr %12, align 8, !tbaa !13
  call void %40(ptr noundef %41)
  store ptr null, ptr %12, align 8, !tbaa !13
  br label %42

42:                                               ; preds = %39, %32
  br label %43

43:                                               ; preds = %42, %24, %21, %4
  %44 = load ptr, ptr %12, align 8, !tbaa !13
  call void @llvm.lifetime.end.p0(i64 8, ptr %12) #8
  call void @llvm.lifetime.end.p0(i64 8, ptr %11) #8
  call void @llvm.lifetime.end.p0(i64 8, ptr %10) #8
  call void @llvm.lifetime.end.p0(i64 8, ptr %9) #8
  ret ptr %44
}

; Function Attrs: nounwind uwtable
define internal ptr @xorhmacsig_to_SubjectPublicKeyInfo_der_import_object(ptr noundef %0, i32 noundef %1, ptr noundef %2) #0 {
  %4 = alloca ptr, align 8
  %5 = alloca i32, align 4
  %6 = alloca ptr, align 8
  %7 = alloca ptr, align 8
  store ptr %0, ptr %4, align 8, !tbaa !13
  store i32 %1, ptr %5, align 4, !tbaa !27
  store ptr %2, ptr %6, align 8, !tbaa !43
  call void @llvm.lifetime.start.p0(i64 8, ptr %7) #8
  %8 = load ptr, ptr %4, align 8, !tbaa !13
  store ptr %8, ptr %7, align 8, !tbaa !71
  %9 = load ptr, ptr %7, align 8, !tbaa !71
  %10 = getelementptr inbounds nuw %struct.key2any_ctx_st, ptr %9, i32 0, i32 0
  %11 = load ptr, ptr %10, align 8, !tbaa !73
  %12 = load i32, ptr %5, align 4, !tbaa !27
  %13 = load ptr, ptr %6, align 8, !tbaa !43
  %14 = call ptr @xor_prov_import_key(ptr noundef @xor_xorhmacsig_keymgmt_functions, ptr noundef %11, i32 noundef %12, ptr noundef %13)
  call void @llvm.lifetime.end.p0(i64 8, ptr %7) #8
  ret ptr %14
}